Archive member included to satisfy reference by file (symbol)

stm32h723/libstm32h723_startup.a(stm32h723_startup.s.o)
                              (Reset_Handler)

Discarded input sections

 .group         0x00000000        0xc bin/CMakeFiles/stm_test.elf.dir/__/src/main.c.o
 .group         0x00000000        0xc bin/CMakeFiles/stm_test.elf.dir/__/src/main.c.o
 .group         0x00000000        0xc bin/CMakeFiles/stm_test.elf.dir/__/src/main.c.o
 .group         0x00000000        0xc bin/CMakeFiles/stm_test.elf.dir/__/src/main.c.o
 .group         0x00000000        0xc bin/CMakeFiles/stm_test.elf.dir/__/src/main.c.o
 .group         0x00000000        0xc bin/CMakeFiles/stm_test.elf.dir/__/src/main.c.o
 .group         0x00000000        0xc bin/CMakeFiles/stm_test.elf.dir/__/src/main.c.o

Memory Configuration

Name             Origin             Length             Attributes
FLASH            0x08000000         0x00100000         xr
ITCM_RAM         0x00000000         0x00010000         xrw
DTCM_RAM         0x20000000         0x00020000         xrw
AXI_SRAM         0x24000000         0x00020000         xrw
SRAM1_2          0x30000000         0x00008000         rw
SRAM4            0x38000000         0x00004000         xrw
BCK_SRAM         0x38800000         0x00001000         rw
SHARED_ITCM_RAM  0x00010000         0x00030000         xrw
SHARED_AXI_RAM   0x24020000         0x00030000         xrw
*default*        0x00000000         0xffffffff

Linker script and memory map

LOAD bin/CMakeFiles/stm_test.elf.dir/__/src/main.c.o
LOAD stm32h723/libstm32h723_startup.a
START GROUP
LOAD /usr/lib/gcc/arm-none-eabi/14.2.0/libgcc.a
LOAD /usr/lib/gcc/arm-none-eabi/14.2.0/../../../../arm-none-eabi/lib/libg_nano.a
LOAD /usr/lib/gcc/arm-none-eabi/14.2.0/../../../../arm-none-eabi/lib/libc_nano.a
END GROUP
START GROUP
LOAD /usr/lib/gcc/arm-none-eabi/14.2.0/libgcc.a
LOAD /usr/lib/gcc/arm-none-eabi/14.2.0/../../../../arm-none-eabi/lib/libc_nano.a
LOAD /usr/lib/gcc/arm-none-eabi/14.2.0/../../../../arm-none-eabi/lib/libnosys.a
END GROUP
START GROUP
LOAD /usr/lib/gcc/arm-none-eabi/14.2.0/libgcc.a
LOAD /usr/lib/gcc/arm-none-eabi/14.2.0/../../../../arm-none-eabi/lib/libc_nano.a
LOAD /usr/lib/gcc/arm-none-eabi/14.2.0/../../../../arm-none-eabi/lib/libnosys.a
END GROUP
                0x20020000                        _estack = (ORIGIN (DTCM_RAM) + LENGTH (DTCM_RAM))

.isr_vector     0x00000000      0x2cc load address 0x08000000
                0x00000000                        _sisrvector = .
 *(.isr_vector)
 .isr_vector    0x00000000      0x2cc stm32h723/libstm32h723_startup.a(stm32h723_startup.s.o)
                0x00000000                g_pfnVectors
                0x000002cc                        _eisrvector = .
                0x08000000                        _sisrvector_load = LOADADDR (.isr_vector)

.text           0x080002cc       0xc0
 *(.text)
 .text          0x080002cc        0x8 bin/CMakeFiles/stm_test.elf.dir/__/src/main.c.o
                0x080002cc                main
 .text          0x080002d4       0xb8 stm32h723/libstm32h723_startup.a(stm32h723_startup.s.o)
                0x080002d4                RTC_WKUP_Handler
                0x080002d4                FLASH_Handler
                0x080002d4                SVCall_Handler
                0x080002d4                DMAMUX2_OVR_Handler
                0x080002d4                FDCAN_CAL_Handler
                0x080002d4                DMA2_STR0_Handler
                0x080002d4                DMA1_STR5_Handler
                0x080002d4                BDMA_CH5_Handler
                0x080002d4                TEMP_IT_Handler
                0x080002d4                DFSDM1_FLT3_Handler
                0x080002d4                OTG_HS_Handler
                0x080002d4                HardFault_Handler
                0x080002d4                SysTick_Handler
                0x080002d4                DMA2_STR2_Handler
                0x080002d4                USART3_Handler
                0x080002d4                PendSV_Handler
                0x080002d4                NMI_Handler
                0x080002d4                SAI1_Handler
                0x080002d4                CRS_Handler
                0x080002d4                DMA2_STR1_Handler
                0x080002d4                TIM6_DAC_Handler
                0x080002d4                EXTI15_10_Handler
                0x080002d4                OCTOSPI2_Handler
                0x080002d4                I2C5_ER_Handler
                0x080002d4                HASH_RNG_Handler
                0x080002d4                I2C1_EV_Handler
                0x080002d4                ADC1_2_Handler
                0x080002d4                COMP_Handler
                0x080002d4                I2C3_ER_Handler
                0x080002d4                EXTI4_Handler
                0x080002d4                I2C3_EV_Handler
                0x080002d4                UART9_Handler
                0x080002d4                LPTIM5_Handler
                0x080002d4                DMA1_STR3_Handler
                0x080002d4                SAI4_Handler
                0x080002d4                DMA1_STR6_Handler
                0x080002d4                DFSDM1_FLT0_Handler
                0x080002d4                DMA2_STR4_Handler
                0x080002d4                ETH_WKUP_Handler
                0x080002d4                I2C1_ER_Handler
                0x080002d4                I2C4_EV_Handler
                0x080002d4                FDCAN1_IT0_Handler
                0x080002d4                I2C4_ER_Handler
                0x080002d4                UsageFault_Handler
                0x080002d4                RTC_TAMP_STAMP_CSS_LSE_Handler
                0x080002d4                TIM1_CC_Handler
                0x080002d4                I2C2_ER_Handler
                0x080002d4                USART6_Handler
                0x080002d4                MDMA_Handler
                0x080002d4                TIM8_CC_Handler
                0x080002d4                DMA1_STR0_Handler
                0x080002d4                DMA2_STR5_Handler
                0x080002d4                TIM1_BRK_Handler
                0x080002d4                CORDIC_IT_Handler
                0x080002d4                OTG_HS_EP1_OUT_Handler
                0x080002d4                FDCAN2_IT1_Handler
                0x080002d4                HSEM0_Handler
                0x080002d4                LPTIM3_Handler
                0x080002d4                EXTI1_Handler
                0x080002d4                USART10_Handler
                0x080002d4                FMC_Handler
                0x080002d4                EXTI3_Handler
                0x080002d4                BDMA_CH7_Handler
                0x080002d4                CRYP_Handler
                0x080002d4                EXTI2_Handler
                0x080002d4                UART4_Handler
                0x080002d4                EXTI9_5_Handler
                0x080002d4                DCMI_PSSI_Handler
                0x080002d4                TIM2_Handler
                0x080002d4                USART1_Handler
                0x080002d4                OCTOSPI1_Handler
                0x080002d4                BDMA_CH2_Handler
                0x080002d4                TIM3_Handler
                0x080002d4                DMA2_STR7_Handler
                0x080002d4                SPI6_Handler
                0x080002d4                BDMA_CH3_Handler
                0x080002d4                TIM17_Handler
                0x080002d4                DMA1_STR7_Handler
                0x080002d4                LTDC_ERR_Handler
                0x080002d4                OTFDEC1_Handler
                0x080002d4                LTDC_Handler
                0x080002d4                DMA2_STR6_Handler
                0x080002d4                TIM4_Handler
                0x080002d4                BDMA_CH6_Handler
                0x080002d4                TIM8_UP_TIM13_Handler
                0x080002d4                SWPMI1_Handler
                0x080002d4                SPI2_Handler
                0x080002d4                SDMMC1_Handler
                0x080002d4                UART7_Handler
                0x080002d4                TIM16_Handler
                0x080002d4                TIM23_Handler
                0x080002d4                DMA1_STR4_Handler
                0x080002d4                MDIOS_WKUP_Handler
                0x080002d4                MemManage_Handler
                0x080002d4                OTFDEC2_Handler
                0x080002d4                FDCAN3_IT0_Handler
                0x080002d4                EXTI0_Handler
                0x080002d4                TIM8_BRK_TIM12_Handler
                0x080002d4                DMA1_STR2_Handler
                0x080002d4                DMA2D_Handler
                0x080002d4                TIM1_UP_Handler
                0x080002d4                ECC_DIAG_IT_Handler
                0x080002d4                LPTIM2_Handler
                0x080002d4                TIM24_Handler
                0x080002d4                LPTIM1_Handler
                0x080002d4                USART2_Handler
                0x080002d4                ETH_Handler
                0x080002d4                SPI1_Handler
                0x080002d4                MDIOS_Handler
                0x080002d4                FDCAN2_IT0_Handler
                0x080002d4                ADC3_Handler
                0x080002d4                I2C2_EV_Handler
                0x080002d4                SPI3_Handler
                0x080002d4                UART8_Handler
                0x080002d4                DMAMUX1_OV_Handler
                0x080002d4                BDMA_CH1_Handler
                0x080002d4                BDMA_CH4_Handler
                0x080002d4                RCC_Handler
                0x080002d4                DMA2_STR3_Handler
                0x080002d4                FDCAN1_IT1_Handler
                0x080002d4                SDMMC2_Handler
                0x080002d4                UART5_Handler
                0x080002d4                DFSDM1_FLT1_Handler
                0x080002d4                TIM15_Handler
                0x080002d4                TIM5_Handler
                0x080002d4                WWDG1_Handler
                0x080002d4                LPTIM4_Handler
                0x080002d4                TIM7_Handler
                0x080002d4                CEC_Handler
                0x080002d4                TIM8_TRG_COM_TIM14_Handler
                0x080002d4                BDMA_CH0_Handler
                0x080002d4                FDCAN3_IT1_Handler
                0x080002d4                DMA1_STR1_Handler
                0x080002d4                FPU_Handler
                0x080002d4                I2C5_EV_Handler
                0x080002d4                SPDIF_Handler
                0x080002d4                DFSDM1_FLT2_Handler
                0x080002d4                BusFault_Handler
                0x080002d4                PVD_PVM_Handler
                0x080002d4                FMAC_Handler
                0x080002d4                WKUP_Handler
                0x080002d4                SPI5_Handler
                0x080002d4                LPUART_Handler
                0x080002d4                TIM1_TRG_CO_M_Handler
                0x080002d4                DebugMonitor_Handler
                0x080002d4                OTG_HS_WKUP_Handler
                0x080002d4                SPI4_Handler
                0x080002d4                OTG_HS_EP1_IN_Handler
                0x080002d4                RTC_ALARM_Handler
                0x080002d6                Reset_Handler
 *(.rodata)
                0x0800038c                        . = ALIGN (0x4)
                0x0800038c                        _etext = .

.glue_7         0x0800038c        0x0
 .glue_7        0x0800038c        0x0 linker stubs

.glue_7t        0x0800038c        0x0
 .glue_7t       0x0800038c        0x0 linker stubs

.vfp11_veneer   0x0800038c        0x0
 .vfp11_veneer  0x0800038c        0x0 linker stubs

.v4_bx          0x0800038c        0x0
 .v4_bx         0x0800038c        0x0 linker stubs

.iplt           0x0800038c        0x0
 .iplt          0x0800038c        0x0 stm32h723/libstm32h723_startup.a(stm32h723_startup.s.o)

.rel.dyn        0x0800038c        0x0
 .rel.iplt      0x0800038c        0x0 stm32h723/libstm32h723_startup.a(stm32h723_startup.s.o)

.data           0x20000000        0x0 load address 0x0800038c
                0x20000000                        _sdata = .
 *(.data)
 .data          0x20000000        0x0 bin/CMakeFiles/stm_test.elf.dir/__/src/main.c.o
 .data          0x20000000        0x0 stm32h723/libstm32h723_startup.a(stm32h723_startup.s.o)
                0x20000000                        . = ALIGN (0x4)
                0x20000000                        _edata = .

.igot.plt       0x20000000        0x0 load address 0x0800038c
 .igot.plt      0x20000000        0x0 stm32h723/libstm32h723_startup.a(stm32h723_startup.s.o)

.bss            0x20000000        0x0
                0x20000000                        _sbss = .
 *(.bss)
 .bss           0x20000000        0x0 bin/CMakeFiles/stm_test.elf.dir/__/src/main.c.o
 .bss           0x20000000        0x0 stm32h723/libstm32h723_startup.a(stm32h723_startup.s.o)
 *(COMMON)
                0x20000000                        . = ALIGN (0x4)
                0x20000000                        _ebss = .
OUTPUT(bin/stm_test.elf elf32-littlearm)
LOAD linker stubs

.debug_info     0x00000000       0xac
 .debug_info    0x00000000       0x87 bin/CMakeFiles/stm_test.elf.dir/__/src/main.c.o
 .debug_info    0x00000087       0x25 stm32h723/libstm32h723_startup.a(stm32h723_startup.s.o)

.debug_abbrev   0x00000000       0x5b
 .debug_abbrev  0x00000000       0x47 bin/CMakeFiles/stm_test.elf.dir/__/src/main.c.o
 .debug_abbrev  0x00000047       0x14 stm32h723/libstm32h723_startup.a(stm32h723_startup.s.o)

.debug_aranges  0x00000000       0x40
 .debug_aranges
                0x00000000       0x20 bin/CMakeFiles/stm_test.elf.dir/__/src/main.c.o
 .debug_aranges
                0x00000020       0x20 stm32h723/libstm32h723_startup.a(stm32h723_startup.s.o)

.debug_macro    0x00000000      0xf8e
 .debug_macro   0x00000000       0x63 bin/CMakeFiles/stm_test.elf.dir/__/src/main.c.o
 .debug_macro   0x00000063      0xade bin/CMakeFiles/stm_test.elf.dir/__/src/main.c.o
 .debug_macro   0x00000b41       0x22 bin/CMakeFiles/stm_test.elf.dir/__/src/main.c.o
 .debug_macro   0x00000b63       0x8e bin/CMakeFiles/stm_test.elf.dir/__/src/main.c.o
 .debug_macro   0x00000bf1       0x51 bin/CMakeFiles/stm_test.elf.dir/__/src/main.c.o
 .debug_macro   0x00000c42      0x103 bin/CMakeFiles/stm_test.elf.dir/__/src/main.c.o
 .debug_macro   0x00000d45       0x6a bin/CMakeFiles/stm_test.elf.dir/__/src/main.c.o
 .debug_macro   0x00000daf      0x1df bin/CMakeFiles/stm_test.elf.dir/__/src/main.c.o

.debug_line     0x00000000      0x1e4
 .debug_line    0x00000000      0x150 bin/CMakeFiles/stm_test.elf.dir/__/src/main.c.o
 .debug_line    0x00000150       0x94 stm32h723/libstm32h723_startup.a(stm32h723_startup.s.o)

.debug_str      0x00000000     0x3c55
 .debug_str     0x00000000     0x3c55 bin/CMakeFiles/stm_test.elf.dir/__/src/main.c.o
                               0x3d63 (size before relaxing)
 .debug_str     0x00003c55       0x76 stm32h723/libstm32h723_startup.a(stm32h723_startup.s.o)

.comment        0x00000000       0x1e
 .comment       0x00000000       0x1e bin/CMakeFiles/stm_test.elf.dir/__/src/main.c.o
                                 0x1f (size before relaxing)

.ARM.attributes
                0x00000000       0x30
 .ARM.attributes
                0x00000000       0x32 bin/CMakeFiles/stm_test.elf.dir/__/src/main.c.o
 .ARM.attributes
                0x00000032       0x23 stm32h723/libstm32h723_startup.a(stm32h723_startup.s.o)

.debug_frame    0x00000000       0x28
 .debug_frame   0x00000000       0x28 bin/CMakeFiles/stm_test.elf.dir/__/src/main.c.o

.debug_line_str
                0x00000000       0x6a
 .debug_line_str
                0x00000000       0x6a stm32h723/libstm32h723_startup.a(stm32h723_startup.s.o)
