Archive member included to satisfy reference by file (symbol)

stm32h7x/libstm32h7x_startup.a(stm32h7x_startup.s.o)
                              (Reset_Handler)
stm32h7x/hardware/libgpio.a(gpio.c.o)
                              bin/CMakeFiles/stm_test.elf.dir/__/src/main.c.o (gpio_init_port)

Discarded input sections

 .group         0x00000000        0xc bin/CMakeFiles/stm_test.elf.dir/__/src/main.c.o
 .group         0x00000000        0xc bin/CMakeFiles/stm_test.elf.dir/__/src/main.c.o
 .group         0x00000000        0xc bin/CMakeFiles/stm_test.elf.dir/__/src/main.c.o
 .group         0x00000000        0xc bin/CMakeFiles/stm_test.elf.dir/__/src/main.c.o
 .group         0x00000000        0xc bin/CMakeFiles/stm_test.elf.dir/__/src/main.c.o
 .group         0x00000000        0xc bin/CMakeFiles/stm_test.elf.dir/__/src/main.c.o
 .group         0x00000000        0xc bin/CMakeFiles/stm_test.elf.dir/__/src/main.c.o
 .group         0x00000000        0xc stm32h7x/hardware/libgpio.a(gpio.c.o)
 .group         0x00000000        0xc stm32h7x/hardware/libgpio.a(gpio.c.o)
 .group         0x00000000        0xc stm32h7x/hardware/libgpio.a(gpio.c.o)
 .group         0x00000000        0xc stm32h7x/hardware/libgpio.a(gpio.c.o)
 .group         0x00000000        0xc stm32h7x/hardware/libgpio.a(gpio.c.o)
 .group         0x00000000        0xc stm32h7x/hardware/libgpio.a(gpio.c.o)
 .group         0x00000000        0xc stm32h7x/hardware/libgpio.a(gpio.c.o)
 .group         0x00000000        0xc stm32h7x/hardware/libgpio.a(gpio.c.o)
 .group         0x00000000        0xc stm32h7x/hardware/libgpio.a(gpio.c.o)
 .group         0x00000000        0xc stm32h7x/hardware/libgpio.a(gpio.c.o)
 .debug_macro   0x00000000      0xade stm32h7x/hardware/libgpio.a(gpio.c.o)
 .debug_macro   0x00000000       0x22 stm32h7x/hardware/libgpio.a(gpio.c.o)
 .debug_macro   0x00000000       0x8e stm32h7x/hardware/libgpio.a(gpio.c.o)
 .debug_macro   0x00000000       0x51 stm32h7x/hardware/libgpio.a(gpio.c.o)
 .debug_macro   0x00000000      0x103 stm32h7x/hardware/libgpio.a(gpio.c.o)
 .debug_macro   0x00000000       0x6a stm32h7x/hardware/libgpio.a(gpio.c.o)
 .debug_macro   0x00000000      0x1df stm32h7x/hardware/libgpio.a(gpio.c.o)

Memory Configuration

Name             Origin             Length             Attributes
FLASH            0x08000000         0x00100000         xr
ITCM_RAM         0x00000000         0x00010000         xrw
DTCM_RAM         0x20000000         0x00020000         xrw
AXI_SRAM         0x24000000         0x00020000         xrw
SRAM1_2          0x30000000         0x00008000         rw
SRAM4            0x38000000         0x00004000         xrw
BCK_SRAM         0x38800000         0x00001000         rw
SHARED_ITCM_RAM  0x00010000         0x00030000         xrw
SHARED_AXI_RAM   0x24020000         0x00030000         xrw
*default*        0x00000000         0xffffffff

Linker script and memory map

LOAD bin/CMakeFiles/stm_test.elf.dir/__/src/main.c.o
LOAD stm32h7x/libstm32h7x_startup.a
LOAD stm32h7x/hardware/libgpio.a
START GROUP
LOAD /usr/lib/gcc/arm-none-eabi/14.2.0/libgcc.a
LOAD /usr/lib/gcc/arm-none-eabi/14.2.0/../../../../arm-none-eabi/lib/libg_nano.a
LOAD /usr/lib/gcc/arm-none-eabi/14.2.0/../../../../arm-none-eabi/lib/libc_nano.a
END GROUP
START GROUP
LOAD /usr/lib/gcc/arm-none-eabi/14.2.0/libgcc.a
LOAD /usr/lib/gcc/arm-none-eabi/14.2.0/../../../../arm-none-eabi/lib/libc_nano.a
LOAD /usr/lib/gcc/arm-none-eabi/14.2.0/../../../../arm-none-eabi/lib/libnosys.a
END GROUP
START GROUP
LOAD /usr/lib/gcc/arm-none-eabi/14.2.0/libgcc.a
LOAD /usr/lib/gcc/arm-none-eabi/14.2.0/../../../../arm-none-eabi/lib/libc_nano.a
LOAD /usr/lib/gcc/arm-none-eabi/14.2.0/../../../../arm-none-eabi/lib/libnosys.a
END GROUP
                0x20020000                        _estack = (ORIGIN (DTCM_RAM) + LENGTH (DTCM_RAM))

.isr_vector     0x00000000      0x2cc load address 0x08000000
                0x00000000                        _sisrvector = .
 *(.isr_vector)
 .isr_vector    0x00000000      0x2cc stm32h7x/libstm32h7x_startup.a(stm32h7x_startup.s.o)
                0x00000000                g_pfnVectors
                0x000002cc                        _eisrvector = .
                0x08000000                        _sisrvector_load = LOADADDR (.isr_vector)

.text           0x080002cc      0x1c4
 *(.text)
 .text          0x080002cc       0x1e bin/CMakeFiles/stm_test.elf.dir/__/src/main.c.o
                0x080002cc                main
 *fill*         0x080002ea        0x2 
 .text          0x080002ec       0xb8 stm32h7x/libstm32h7x_startup.a(stm32h7x_startup.s.o)
                0x080002ec                RTC_WKUP_Handler
                0x080002ec                FLASH_Handler
                0x080002ec                SVCall_Handler
                0x080002ec                DMAMUX2_OVR_Handler
                0x080002ec                FDCAN_CAL_Handler
                0x080002ec                DMA2_STR0_Handler
                0x080002ec                DMA1_STR5_Handler
                0x080002ec                BDMA_CH5_Handler
                0x080002ec                TEMP_IT_Handler
                0x080002ec                DFSDM1_FLT3_Handler
                0x080002ec                OTG_HS_Handler
                0x080002ec                HardFault_Handler
                0x080002ec                SysTick_Handler
                0x080002ec                DMA2_STR2_Handler
                0x080002ec                USART3_Handler
                0x080002ec                PendSV_Handler
                0x080002ec                NMI_Handler
                0x080002ec                SAI1_Handler
                0x080002ec                CRS_Handler
                0x080002ec                DMA2_STR1_Handler
                0x080002ec                TIM6_DAC_Handler
                0x080002ec                EXTI15_10_Handler
                0x080002ec                OCTOSPI2_Handler
                0x080002ec                I2C5_ER_Handler
                0x080002ec                HASH_RNG_Handler
                0x080002ec                I2C1_EV_Handler
                0x080002ec                ADC1_2_Handler
                0x080002ec                COMP_Handler
                0x080002ec                I2C3_ER_Handler
                0x080002ec                EXTI4_Handler
                0x080002ec                I2C3_EV_Handler
                0x080002ec                UART9_Handler
                0x080002ec                LPTIM5_Handler
                0x080002ec                DMA1_STR3_Handler
                0x080002ec                SAI4_Handler
                0x080002ec                DMA1_STR6_Handler
                0x080002ec                DFSDM1_FLT0_Handler
                0x080002ec                DMA2_STR4_Handler
                0x080002ec                ETH_WKUP_Handler
                0x080002ec                I2C1_ER_Handler
                0x080002ec                I2C4_EV_Handler
                0x080002ec                FDCAN1_IT0_Handler
                0x080002ec                I2C4_ER_Handler
                0x080002ec                UsageFault_Handler
                0x080002ec                RTC_TAMP_STAMP_CSS_LSE_Handler
                0x080002ec                TIM1_CC_Handler
                0x080002ec                I2C2_ER_Handler
                0x080002ec                USART6_Handler
                0x080002ec                MDMA_Handler
                0x080002ec                TIM8_CC_Handler
                0x080002ec                DMA1_STR0_Handler
                0x080002ec                DMA2_STR5_Handler
                0x080002ec                TIM1_BRK_Handler
                0x080002ec                CORDIC_IT_Handler
                0x080002ec                OTG_HS_EP1_OUT_Handler
                0x080002ec                FDCAN2_IT1_Handler
                0x080002ec                HSEM0_Handler
                0x080002ec                LPTIM3_Handler
                0x080002ec                EXTI1_Handler
                0x080002ec                USART10_Handler
                0x080002ec                FMC_Handler
                0x080002ec                EXTI3_Handler
                0x080002ec                BDMA_CH7_Handler
                0x080002ec                CRYP_Handler
                0x080002ec                EXTI2_Handler
                0x080002ec                UART4_Handler
                0x080002ec                EXTI9_5_Handler
                0x080002ec                DCMI_PSSI_Handler
                0x080002ec                TIM2_Handler
                0x080002ec                USART1_Handler
                0x080002ec                OCTOSPI1_Handler
                0x080002ec                BDMA_CH2_Handler
                0x080002ec                TIM3_Handler
                0x080002ec                DMA2_STR7_Handler
                0x080002ec                SPI6_Handler
                0x080002ec                BDMA_CH3_Handler
                0x080002ec                TIM17_Handler
                0x080002ec                DMA1_STR7_Handler
                0x080002ec                LTDC_ERR_Handler
                0x080002ec                OTFDEC1_Handler
                0x080002ec                LTDC_Handler
                0x080002ec                DMA2_STR6_Handler
                0x080002ec                TIM4_Handler
                0x080002ec                BDMA_CH6_Handler
                0x080002ec                TIM8_UP_TIM13_Handler
                0x080002ec                SWPMI1_Handler
                0x080002ec                SPI2_Handler
                0x080002ec                SDMMC1_Handler
                0x080002ec                UART7_Handler
                0x080002ec                TIM16_Handler
                0x080002ec                TIM23_Handler
                0x080002ec                DMA1_STR4_Handler
                0x080002ec                MDIOS_WKUP_Handler
                0x080002ec                MemManage_Handler
                0x080002ec                OTFDEC2_Handler
                0x080002ec                FDCAN3_IT0_Handler
                0x080002ec                EXTI0_Handler
                0x080002ec                TIM8_BRK_TIM12_Handler
                0x080002ec                DMA1_STR2_Handler
                0x080002ec                DMA2D_Handler
                0x080002ec                TIM1_UP_Handler
                0x080002ec                ECC_DIAG_IT_Handler
                0x080002ec                LPTIM2_Handler
                0x080002ec                TIM24_Handler
                0x080002ec                LPTIM1_Handler
                0x080002ec                USART2_Handler
                0x080002ec                ETH_Handler
                0x080002ec                SPI1_Handler
                0x080002ec                MDIOS_Handler
                0x080002ec                FDCAN2_IT0_Handler
                0x080002ec                ADC3_Handler
                0x080002ec                I2C2_EV_Handler
                0x080002ec                SPI3_Handler
                0x080002ec                UART8_Handler
                0x080002ec                DMAMUX1_OV_Handler
                0x080002ec                BDMA_CH1_Handler
                0x080002ec                BDMA_CH4_Handler
                0x080002ec                RCC_Handler
                0x080002ec                DMA2_STR3_Handler
                0x080002ec                FDCAN1_IT1_Handler
                0x080002ec                SDMMC2_Handler
                0x080002ec                UART5_Handler
                0x080002ec                DFSDM1_FLT1_Handler
                0x080002ec                TIM15_Handler
                0x080002ec                TIM5_Handler
                0x080002ec                WWDG1_Handler
                0x080002ec                LPTIM4_Handler
                0x080002ec                TIM7_Handler
                0x080002ec                CEC_Handler
                0x080002ec                TIM8_TRG_COM_TIM14_Handler
                0x080002ec                BDMA_CH0_Handler
                0x080002ec                FDCAN3_IT1_Handler
                0x080002ec                DMA1_STR1_Handler
                0x080002ec                FPU_Handler
                0x080002ec                I2C5_EV_Handler
                0x080002ec                SPDIF_Handler
                0x080002ec                DFSDM1_FLT2_Handler
                0x080002ec                BusFault_Handler
                0x080002ec                PVD_PVM_Handler
                0x080002ec                FMAC_Handler
                0x080002ec                WKUP_Handler
                0x080002ec                SPI5_Handler
                0x080002ec                LPUART_Handler
                0x080002ec                TIM1_TRG_CO_M_Handler
                0x080002ec                DebugMonitor_Handler
                0x080002ec                OTG_HS_WKUP_Handler
                0x080002ec                SPI4_Handler
                0x080002ec                OTG_HS_EP1_IN_Handler
                0x080002ec                RTC_ALARM_Handler
                0x080002ee                Reset_Handler
 .text          0x080003a4       0xec stm32h7x/hardware/libgpio.a(gpio.c.o)
                0x080003a4                gpio_init_port
                0x080003d4                gpio_set_dir_out
                0x0800043c                gpio_put
 *(.rodata)
                0x08000490                        . = ALIGN (0x4)
                0x08000490                        _etext = .

.glue_7         0x08000490        0x0
 .glue_7        0x08000490        0x0 linker stubs

.glue_7t        0x08000490        0x0
 .glue_7t       0x08000490        0x0 linker stubs

.vfp11_veneer   0x08000490        0x0
 .vfp11_veneer  0x08000490        0x0 linker stubs

.v4_bx          0x08000490        0x0
 .v4_bx         0x08000490        0x0 linker stubs

.iplt           0x08000490        0x0
 .iplt          0x08000490        0x0 bin/CMakeFiles/stm_test.elf.dir/__/src/main.c.o

.rel.dyn        0x08000490        0x0
 .rel.iplt      0x08000490        0x0 bin/CMakeFiles/stm_test.elf.dir/__/src/main.c.o

.data           0x20000000        0x0 load address 0x08000490
                0x20000000                        _sdata = .
 *(.data)
 .data          0x20000000        0x0 bin/CMakeFiles/stm_test.elf.dir/__/src/main.c.o
 .data          0x20000000        0x0 stm32h7x/libstm32h7x_startup.a(stm32h7x_startup.s.o)
 .data          0x20000000        0x0 stm32h7x/hardware/libgpio.a(gpio.c.o)
                0x20000000                        . = ALIGN (0x4)
                0x20000000                        _edata = .

.igot.plt       0x20000000        0x0 load address 0x08000490
 .igot.plt      0x20000000        0x0 bin/CMakeFiles/stm_test.elf.dir/__/src/main.c.o

.bss            0x20000000        0x0
                0x20000000                        _sbss = .
 *(.bss)
 .bss           0x20000000        0x0 bin/CMakeFiles/stm_test.elf.dir/__/src/main.c.o
 .bss           0x20000000        0x0 stm32h7x/libstm32h7x_startup.a(stm32h7x_startup.s.o)
 .bss           0x20000000        0x0 stm32h7x/hardware/libgpio.a(gpio.c.o)
 *(COMMON)
                0x20000000                        . = ALIGN (0x4)
                0x20000000                        _ebss = .
OUTPUT(bin/stm_test.elf elf32-littlearm)
LOAD linker stubs

.debug_info     0x00000000      0x4db
 .debug_info    0x00000000      0x1b3 bin/CMakeFiles/stm_test.elf.dir/__/src/main.c.o
 .debug_info    0x000001b3       0x25 stm32h7x/libstm32h7x_startup.a(stm32h7x_startup.s.o)
 .debug_info    0x000001d8      0x303 stm32h7x/hardware/libgpio.a(gpio.c.o)

.debug_abbrev   0x00000000      0x1a2
 .debug_abbrev  0x00000000       0x9f bin/CMakeFiles/stm_test.elf.dir/__/src/main.c.o
 .debug_abbrev  0x0000009f       0x14 stm32h7x/libstm32h7x_startup.a(stm32h7x_startup.s.o)
 .debug_abbrev  0x000000b3       0xef stm32h7x/hardware/libgpio.a(gpio.c.o)

.debug_aranges  0x00000000       0x60
 .debug_aranges
                0x00000000       0x20 bin/CMakeFiles/stm_test.elf.dir/__/src/main.c.o
 .debug_aranges
                0x00000020       0x20 stm32h7x/libstm32h7x_startup.a(stm32h7x_startup.s.o)
 .debug_aranges
                0x00000040       0x20 stm32h7x/hardware/libgpio.a(gpio.c.o)

.debug_macro    0x00000000     0x113a
 .debug_macro   0x00000000       0x6d bin/CMakeFiles/stm_test.elf.dir/__/src/main.c.o
 .debug_macro   0x0000006d      0xade bin/CMakeFiles/stm_test.elf.dir/__/src/main.c.o
 .debug_macro   0x00000b4b       0x22 bin/CMakeFiles/stm_test.elf.dir/__/src/main.c.o
 .debug_macro   0x00000b6d       0x8e bin/CMakeFiles/stm_test.elf.dir/__/src/main.c.o
 .debug_macro   0x00000bfb       0x51 bin/CMakeFiles/stm_test.elf.dir/__/src/main.c.o
 .debug_macro   0x00000c4c      0x103 bin/CMakeFiles/stm_test.elf.dir/__/src/main.c.o
 .debug_macro   0x00000d4f       0x6a bin/CMakeFiles/stm_test.elf.dir/__/src/main.c.o
 .debug_macro   0x00000db9      0x1df bin/CMakeFiles/stm_test.elf.dir/__/src/main.c.o
 .debug_macro   0x00000f98       0x8e stm32h7x/hardware/libgpio.a(gpio.c.o)
 .debug_macro   0x00001026       0x10 stm32h7x/hardware/libgpio.a(gpio.c.o)
 .debug_macro   0x00001036       0xf4 stm32h7x/hardware/libgpio.a(gpio.c.o)
 .debug_macro   0x0000112a       0x10 stm32h7x/hardware/libgpio.a(gpio.c.o)

.debug_line     0x00000000      0x4a7
 .debug_line    0x00000000      0x1a4 bin/CMakeFiles/stm_test.elf.dir/__/src/main.c.o
 .debug_line    0x000001a4       0x94 stm32h7x/libstm32h7x_startup.a(stm32h7x_startup.s.o)
 .debug_line    0x00000238      0x26f stm32h7x/hardware/libgpio.a(gpio.c.o)

.debug_str      0x00000000     0x43ec
 .debug_str     0x00000000     0x43ec bin/CMakeFiles/stm_test.elf.dir/__/src/main.c.o
                               0x3e7f (size before relaxing)
 .debug_str     0x000043ec       0x74 stm32h7x/libstm32h7x_startup.a(stm32h7x_startup.s.o)
 .debug_str     0x000043ec     0x44e0 stm32h7x/hardware/libgpio.a(gpio.c.o)

.comment        0x00000000       0x1e
 .comment       0x00000000       0x1e bin/CMakeFiles/stm_test.elf.dir/__/src/main.c.o
                                 0x1f (size before relaxing)
 .comment       0x0000001e       0x1f stm32h7x/hardware/libgpio.a(gpio.c.o)

.ARM.attributes
                0x00000000       0x30
 .ARM.attributes
                0x00000000       0x32 bin/CMakeFiles/stm_test.elf.dir/__/src/main.c.o
 .ARM.attributes
                0x00000032       0x23 stm32h7x/libstm32h7x_startup.a(stm32h7x_startup.s.o)
 .ARM.attributes
                0x00000055       0x32 stm32h7x/hardware/libgpio.a(gpio.c.o)

.debug_frame    0x00000000       0xb4
 .debug_frame   0x00000000       0x2c bin/CMakeFiles/stm_test.elf.dir/__/src/main.c.o
 .debug_frame   0x0000002c       0x88 stm32h7x/hardware/libgpio.a(gpio.c.o)

.debug_line_str
                0x00000000       0x68
 .debug_line_str
                0x00000000       0x68 stm32h7x/libstm32h7x_startup.a(stm32h7x_startup.s.o)
